; ModuleID = '24/736.c'
source_filename = "24/736.c"
target datalayout = "e-m:e-p270:32:32-p271:32:32-p272:64:64-i64:64-f80:128-n8:16:32:64-S128"
target triple = "x86_64-pc-linux-gnu"

@.str = private unnamed_addr constant [4 x i8] c"%s\0A\00", align 1

; Function Attrs: noinline nounwind uwtable
define dso_local i32 @main() #0 {
  %1 = alloca i32, align 4
  %2 = alloca [10000 x i8], align 16
  %3 = alloca [50 x [100 x i8]], align 16
  %4 = alloca [50 x i32], align 16
  %5 = alloca i32, align 4
  %6 = alloca i32, align 4
  %7 = alloca i32, align 4
  %8 = alloca i32, align 4
  %9 = alloca i32, align 4
  store i32 0, i32* %1, align 4
  store i32 0, i32* %7, align 4
  store i32 0, i32* %8, align 4
  store i32 0, i32* %9, align 4
  %10 = getelementptr inbounds [10000 x i8], [10000 x i8]* %2, i64 0, i64 0
  %11 = call i32 (i8*, ...) bitcast (i32 (...)* @gets to i32 (i8*, ...)*)(i8* %10)
  %12 = getelementptr inbounds [10000 x i8], [10000 x i8]* %2, i64 0, i64 0
  %13 = call i64 @strlen(i8* %12) #3
  %14 = trunc i64 %13 to i32
  store i32 %14, i32* %5, align 4
  br label %15

15:                                               ; preds = %56, %0
  %16 = load i32, i32* %7, align 4
  %17 = load i32, i32* %5, align 4
  %18 = icmp slt i32 %16, %17
  br i1 %18, label %19, label %61

19:                                               ; preds = %15
  %20 = load i32, i32* %7, align 4
  %21 = sext i32 %20 to i64
  %22 = getelementptr inbounds [10000 x i8], [10000 x i8]* %2, i64 0, i64 %21
  %23 = load i8, i8* %22, align 1
  %24 = load i32, i32* %8, align 4
  %25 = sext i32 %24 to i64
  %26 = getelementptr inbounds [50 x [100 x i8]], [50 x [100 x i8]]* %3, i64 0, i64 %25
  %27 = load i32, i32* %9, align 4
  %28 = sext i32 %27 to i64
  %29 = getelementptr inbounds [100 x i8], [100 x i8]* %26, i64 0, i64 %28
  store i8 %23, i8* %29, align 1
  %30 = load i32, i32* %8, align 4
  %31 = sext i32 %30 to i64
  %32 = getelementptr inbounds [50 x i32], [50 x i32]* %4, i64 0, i64 %31
  %33 = load i32, i32* %32, align 4
  %34 = add nsw i32 %33, 1
  store i32 %34, i32* %32, align 4
  %35 = load i32, i32* %7, align 4
  %36 = sext i32 %35 to i64
  %37 = getelementptr inbounds [10000 x i8], [10000 x i8]* %2, i64 0, i64 %36
  %38 = load i8, i8* %37, align 1
  %39 = sext i8 %38 to i32
  %40 = icmp eq i32 %39, 32
  br i1 %40, label %41, label %55

41:                                               ; preds = %19
  %42 = load i32, i32* %8, align 4
  %43 = sext i32 %42 to i64
  %44 = getelementptr inbounds [50 x [100 x i8]], [50 x [100 x i8]]* %3, i64 0, i64 %43
  %45 = load i32, i32* %9, align 4
  %46 = sext i32 %45 to i64
  %47 = getelementptr inbounds [100 x i8], [100 x i8]* %44, i64 0, i64 %46
  store i8 0, i8* %47, align 1
  %48 = load i32, i32* %8, align 4
  %49 = sext i32 %48 to i64
  %50 = getelementptr inbounds [50 x i32], [50 x i32]* %4, i64 0, i64 %49
  %51 = load i32, i32* %50, align 4
  %52 = add nsw i32 %51, -1
  store i32 %52, i32* %50, align 4
  %53 = load i32, i32* %8, align 4
  %54 = add nsw i32 %53, 1
  store i32 %54, i32* %8, align 4
  store i32 -1, i32* %9, align 4
  br label %55

55:                                               ; preds = %41, %19
  br label %56

56:                                               ; preds = %55
  %57 = load i32, i32* %7, align 4
  %58 = add nsw i32 %57, 1
  store i32 %58, i32* %7, align 4
  %59 = load i32, i32* %9, align 4
  %60 = add nsw i32 %59, 1
  store i32 %60, i32* %9, align 4
  br label %15

61:                                               ; preds = %15
  %62 = load i32, i32* %8, align 4
  %63 = sext i32 %62 to i64
  %64 = getelementptr inbounds [50 x [100 x i8]], [50 x [100 x i8]]* %3, i64 0, i64 %63
  %65 = load i32, i32* %9, align 4
  %66 = add nsw i32 %65, 1
  %67 = sext i32 %66 to i64
  %68 = getelementptr inbounds [100 x i8], [100 x i8]* %64, i64 0, i64 %67
  store i8 0, i8* %68, align 1
  %69 = getelementptr inbounds [50 x i32], [50 x i32]* %4, i64 0, i64 0
  %70 = load i32, i32* %69, align 16
  store i32 %70, i32* %6, align 4
  store i32 %70, i32* %5, align 4
  store i32 1, i32* %7, align 4
  br label %71

71:                                               ; preds = %100, %61
  %72 = load i32, i32* %7, align 4
  %73 = load i32, i32* %8, align 4
  %74 = icmp sle i32 %72, %73
  br i1 %74, label %75, label %103

75:                                               ; preds = %71
  %76 = load i32, i32* %5, align 4
  %77 = load i32, i32* %7, align 4
  %78 = sext i32 %77 to i64
  %79 = getelementptr inbounds [50 x i32], [50 x i32]* %4, i64 0, i64 %78
  %80 = load i32, i32* %79, align 4
  %81 = icmp slt i32 %76, %80
  br i1 %81, label %82, label %87

82:                                               ; preds = %75
  %83 = load i32, i32* %7, align 4
  %84 = sext i32 %83 to i64
  %85 = getelementptr inbounds [50 x i32], [50 x i32]* %4, i64 0, i64 %84
  %86 = load i32, i32* %85, align 4
  store i32 %86, i32* %5, align 4
  br label %87

87:                                               ; preds = %82, %75
  %88 = load i32, i32* %6, align 4
  %89 = load i32, i32* %7, align 4
  %90 = sext i32 %89 to i64
  %91 = getelementptr inbounds [50 x i32], [50 x i32]* %4, i64 0, i64 %90
  %92 = load i32, i32* %91, align 4
  %93 = icmp sgt i32 %88, %92
  br i1 %93, label %94, label %99

94:                                               ; preds = %87
  %95 = load i32, i32* %7, align 4
  %96 = sext i32 %95 to i64
  %97 = getelementptr inbounds [50 x i32], [50 x i32]* %4, i64 0, i64 %96
  %98 = load i32, i32* %97, align 4
  store i32 %98, i32* %6, align 4
  br label %99

99:                                               ; preds = %94, %87
  br label %100

100:                                              ; preds = %99
  %101 = load i32, i32* %7, align 4
  %102 = add nsw i32 %101, 1
  store i32 %102, i32* %7, align 4
  br label %71

103:                                              ; preds = %71
  store i32 0, i32* %7, align 4
  br label %104

104:                                              ; preds = %117, %103
  %105 = load i32, i32* %7, align 4
  %106 = load i32, i32* %8, align 4
  %107 = icmp sle i32 %105, %106
  br i1 %107, label %108, label %120

108:                                              ; preds = %104
  %109 = load i32, i32* %7, align 4
  %110 = sext i32 %109 to i64
  %111 = getelementptr inbounds [50 x i32], [50 x i32]* %4, i64 0, i64 %110
  %112 = load i32, i32* %111, align 4
  %113 = load i32, i32* %5, align 4
  %114 = icmp eq i32 %112, %113
  br i1 %114, label %115, label %116

115:                                              ; preds = %108
  br label %120

116:                                              ; preds = %108
  br label %117

117:                                              ; preds = %116
  %118 = load i32, i32* %7, align 4
  %119 = add nsw i32 %118, 1
  store i32 %119, i32* %7, align 4
  br label %104

120:                                              ; preds = %115, %104
  %121 = load i32, i32* %7, align 4
  %122 = sext i32 %121 to i64
  %123 = getelementptr inbounds [50 x [100 x i8]], [50 x [100 x i8]]* %3, i64 0, i64 %122
  %124 = getelementptr inbounds [100 x i8], [100 x i8]* %123, i64 0, i64 0
  %125 = call i32 (i8*, ...) @printf(i8* getelementptr inbounds ([4 x i8], [4 x i8]* @.str, i64 0, i64 0), i8* %124)
  store i32 0, i32* %7, align 4
  br label %126

126:                                              ; preds = %139, %120
  %127 = load i32, i32* %7, align 4
  %128 = load i32, i32* %8, align 4
  %129 = icmp sle i32 %127, %128
  br i1 %129, label %130, label %142

130:                                              ; preds = %126
  %131 = load i32, i32* %7, align 4
  %132 = sext i32 %131 to i64
  %133 = getelementptr inbounds [50 x i32], [50 x i32]* %4, i64 0, i64 %132
  %134 = load i32, i32* %133, align 4
  %135 = load i32, i32* %6, align 4
  %136 = icmp eq i32 %134, %135
  br i1 %136, label %137, label %138

137:                                              ; preds = %130
  br label %142

138:                                              ; preds = %130
  br label %139

139:                                              ; preds = %138
  %140 = load i32, i32* %7, align 4
  %141 = add nsw i32 %140, 1
  store i32 %141, i32* %7, align 4
  br label %126

142:                                              ; preds = %137, %126
  %143 = load i32, i32* %7, align 4
  %144 = sext i32 %143 to i64
  %145 = getelementptr inbounds [50 x [100 x i8]], [50 x [100 x i8]]* %3, i64 0, i64 %144
  %146 = getelementptr inbounds [100 x i8], [100 x i8]* %145, i64 0, i64 0
  %147 = call i32 (i8*, ...) @printf(i8* getelementptr inbounds ([4 x i8], [4 x i8]* @.str, i64 0, i64 0), i8* %146)
  ret i32 0
}

declare dso_local i32 @gets(...) #1

; Function Attrs: nounwind readonly
declare dso_local i64 @strlen(i8*) #2

declare dso_local i32 @printf(i8*, ...) #1


!llvm.module.flags = !{!0}
!llvm.ident = !{!1}

!0 = !{i32 1, !"wchar_size", i32 4}
!1 = !{!"clang version 10.0.0-4ubuntu1 "}
